(dp0
S'lasso'
p1
(dp2
S'DSP_impl'
p3
(dp4
S'param'
p5
(dp6
S'alpha'
p7
F0.01
sssS'LUT_impl'
p8
(dp9
g5
(dp10
g7
F0.01
sssS'BRAM_impl'
p11
(dp12
g5
(dp13
g7
F0.01
sssS'FF_impl'
p14
(dp15
g5
(dp16
g7
F0.03
ssss.