(dp0
S'xgb'
p1
(dp2
S'CP_impl'
p3
(dp4
S'param'
p5
(dp6
S'colsample_bytree'
p7
F0.8
sS'learning_rate'
p8
F0.01
sS'min_child_weight'
p9
I22
sS'n_estimators'
p10
I288
sS'subsample'
p11
F0.66
sS'max_depth'
p12
I6
sS'gamma'
p13
F0.28
sssS'DSP_impl'
p14
(dp15
S'param'
p16
(dp17
g10
I144
sg11
F0.98
sg7
F1.0
sg13
F0.0
sg8
F0.13
sg12
I3
sg9
I4
sssS'LUT_impl'
p18
(dp19
g16
(dp20
g10
I240
sg11
F0.96
sg7
F0.82
sg13
F0.14
sg8
F0.04
sg12
I3
sg9
I42
sssS'BRAM_impl'
p21
(dp22
g16
(dp23
g10
I294
sg11
F1.0
sg7
F0.34
sg13
F0.04
sg8
F0.02
sg12
I2
sg9
I0
sssS'FF_impl'
p24
(dp25
g16
(dp26
g10
I276
sg11
F0.46
sg7
F0.98
sg13
F0.0
sg8
F0.03
sg12
I3
sg9
I2
ssssS'lasso'
p27
(dp28
S'CP_impl'
p29
(dp30
S'param'
p31
(dp32
S'alpha'
p33
F0.07
sssS'DSP_impl'
p34
(dp35
S'param'
p36
(dp37
g33
F0.01
sssS'LUT_impl'
p38
(dp39
g36
(dp40
g33
F0.01
sssS'FF_impl'
p41
(dp42
g36
(dp43
g33
F0.01
sssS'BRAM_impl'
p44
(dp45
g36
(dp46
g33
F0.01
ssss.