(dp0
S'xgb'
p1
(dp2
S'Registers_used'
p3
(dp4
S'param'
p5
(dp6
S'n_estimators'
p7
I294
sS'subsample'
p8
F0.98
sS'colsample_bytree'
p9
F0.2
sS'gamma'
p10
F0.0
sS'learning_rate'
p11
F0.39
sS'max_depth'
p12
I2
sS'min_child_weight'
p13
I0
sssS'DSP_blocks_used'
p14
(dp15
g5
(dp16
g7
I174
sg8
F1.0
sg9
F0.34
sg10
F0.14
sg11
F0.1
sg12
I2
sg13
I12
sssS'RAM_blocks_used'
p17
(dp18
g5
(dp19
g7
I60
sg8
F0.96
sg9
F0.94
sg10
F0.06
sg11
F0.22
sg12
I5
sg13
I16
sssS'ALUT_used'
p20
(dp21
g5
(dp22
g7
I294
sg8
F0.5
sg9
F0.68
sg10
F0.08
sg11
F0.22
sg12
I4
sg13
I0
sssS'Block_memory_bits_used'
p23
(dp24
g5
(dp25
g7
I282
sg8
F0.86
sg9
F1.0
sg10
F0.12
sg11
F0.3
sg12
I8
sg13
I10
ssssS'lasso'
p26
(dp27
S'Registers_used'
p28
(dp29
S'param'
p30
(dp31
S'alpha'
p32
F0.02
sssS'DSP_blocks_used'
p33
(dp34
g30
(dp35
g32
F0.02
sssS'RAM_blocks_used'
p36
(dp37
g30
(dp38
g32
F0.14
sssS'ALUT_used'
p39
(dp40
g30
(dp41
g32
F0.02
sssS'Block_memory_bits_used'
p42
(dp43
g30
(dp44
g32
F0.04
ssss.